; Function Attrs: mustprogress uwtable
define void @_ZNK8facebook5velox9functions9aggregate22SingleValueAccumulator4readERKSt10shared_ptrINS0_10BaseVectorEEi(ptr nocapture noundef nonnull readonly align 8 dereferenceable(16) %this, ptr nocapture noundef nonnull readonly align 8 dereferenceable(16) %vector, i32 noundef %index) local_unnamed_addr #0 align 2 personality ptr @__gxx_personality_v0 {
entry:
  %stream = alloca %"class.facebook::velox::ByteInputStream", align 8
  %0 = load ptr, ptr %this, align 8
  %cmp.not = icmp eq ptr %0, null
  br i1 %cmp.not, label %if.then, label %if.end

if.then:                                          ; preds = %entry
  tail call void @llvm.trap()
  unreachable

if.end:                                           ; preds = %entry
  call void @_ZN8facebook5velox19HashStringAllocator11prepareReadEPKNS1_6HeaderE(ptr nonnull sret(%"class.facebook::velox::ByteInputStream") align 8 %stream, ptr noundef nonnull %0)
  %1 = load ptr, ptr %vector, align 8
  invoke void @_ZN8facebook5velox4exec17ContainerRowSerde11deserializeERNS0_15ByteInputStreamEiPNS0_10BaseVectorE(ptr noundef nonnull align 8 dereferenceable(40) %stream, i32 noundef %index, ptr noundef %1)
          to label %invoke.cont unwind label %lpad

invoke.cont:                                      ; preds = %if.end
  store ptr getelementptr inbounds ({ [6 x ptr] }, ptr @_ZTVN8facebook5velox15ByteInputStreamE, i64 0, i32 0, i64 2), ptr %stream, align 8
  %ranges_.i = getelementptr inbounds i8, ptr %stream, i64 8
  %2 = load ptr, ptr %ranges_.i, align 8
  %tobool.not.i.i.i.i = icmp eq ptr %2, null
  br i1 %tobool.not.i.i.i.i, label %_ZN8facebook5velox15ByteInputStreamD2Ev.exit, label %if.then.i.i.i.i

if.then.i.i.i.i:                                  ; preds = %invoke.cont
  call void @_ZdlPv(ptr noundef nonnull %2) #6
  br label %_ZN8facebook5velox15ByteInputStreamD2Ev.exit

_ZN8facebook5velox15ByteInputStreamD2Ev.exit:     ; preds = %invoke.cont, %if.then.i.i.i.i
  ret void

lpad:                                             ; preds = %if.end
  %3 = landingpad { ptr, i32 }
          cleanup
  store ptr getelementptr inbounds ({ [6 x ptr] }, ptr @_ZTVN8facebook5velox15ByteInputStreamE, i64 0, i32 0, i64 2), ptr %stream, align 8
  %ranges_.i1 = getelementptr inbounds i8, ptr %stream, i64 8
  %4 = load ptr, ptr %ranges_.i1, align 8
  %tobool.not.i.i.i.i2 = icmp eq ptr %4, null
  br i1 %tobool.not.i.i.i.i2, label %_ZN8facebook5velox15ByteInputStreamD2Ev.exit4, label %if.then.i.i.i.i3

if.then.i.i.i.i3:                                 ; preds = %lpad
  call void @_ZdlPv(ptr noundef nonnull %4) #6
  br label %_ZN8facebook5velox15ByteInputStreamD2Ev.exit4

_ZN8facebook5velox15ByteInputStreamD2Ev.exit4:    ; preds = %lpad, %if.then.i.i.i.i3
  resume { ptr, i32 } %3
}